target datalayout = "e-m:e-p270:32:32-p271:32:32-p272:64:64-i64:64-i128:128-f80:128-n8:16:32:64-S128"
target triple = "x86_64-pc-linux-gnu"

%struct.archive_match = type { %struct.archive, i32, i32, %struct.match_list, %struct.match_list, i64, i32, i64, i64, i32, i64, i64, i32, i64, i64, i32, i64, i64, %struct.archive_rb_tree, %struct.entry_list, %struct.id_array, %struct.id_array, %struct.match_list, %struct.match_list }
%struct.archive = type { i32, i32, ptr, i32, ptr, i32, i32, ptr, %struct.archive_string, ptr, i32, i32, ptr, ptr, i64, i64, i64, i8, i64 }
%struct.archive_string = type { ptr, i64, i64 }
%struct.archive_rb_tree = type { ptr, ptr }
%struct.entry_list = type { ptr, ptr, i32 }
%struct.id_array = type { i64, i64, ptr }
%struct.match_list = type { ptr, ptr, i32, i32, ptr, i32 }
%struct.match = type { ptr, i32, %struct.archive_mstring }
%struct.archive_mstring = type { %struct.archive_string, %struct.archive_string, %struct.archive_wstring, %struct.archive_string, i32 }
%struct.archive_wstring = type { ptr, i64, i64 }

@.str.32 = private unnamed_addr constant [10 x i8] c"No memory\00", align 1

; Function Attrs: nounwind uwtable
define internal i32 @error_nomem(ptr noundef %0) #0 {
  %2 = alloca ptr, align 8
  store ptr %0, ptr %2, align 8, !tbaa !4
  %3 = load ptr, ptr %2, align 8, !tbaa !4
  %4 = getelementptr inbounds nuw %struct.archive_match, ptr %3, i32 0, i32 0
  call void (ptr, i32, ptr, ...) @archive_set_error(ptr noundef %4, i32 noundef 12, ptr noundef @.str.32)
  %5 = load ptr, ptr %2, align 8, !tbaa !4
  %6 = getelementptr inbounds nuw %struct.archive_match, ptr %5, i32 0, i32 0
  %7 = getelementptr inbounds nuw %struct.archive, ptr %6, i32 0, i32 1
  store i32 32768, ptr %7, align 4, !tbaa !29
  ret i32 -30
}

; Function Attrs: nounwind uwtable
define internal i32 @match_owner_name_mbs(ptr noundef %0, ptr noundef %1, ptr noundef %2) #0 {
  %4 = alloca i32, align 4
  %5 = alloca ptr, align 8
  %6 = alloca ptr, align 8
  %7 = alloca ptr, align 8
  %8 = alloca ptr, align 8
  %9 = alloca ptr, align 8
  %10 = alloca i32, align 4
  store ptr %0, ptr %5, align 8, !tbaa !4
  store ptr %1, ptr %6, align 8, !tbaa !31
  store ptr %2, ptr %7, align 8, !tbaa !94
  call void @llvm.lifetime.start.p0(i64 8, ptr %8) #9
  call void @llvm.lifetime.start.p0(i64 8, ptr %9) #9
  %11 = load ptr, ptr %7, align 8, !tbaa !94
  %12 = icmp eq ptr %11, null
  br i1 %12, label %18, label %13

13:                                               ; preds = %3
  %14 = load ptr, ptr %7, align 8, !tbaa !94
  %15 = load i8, ptr %14, align 1, !tbaa !95
  %16 = sext i8 %15 to i32
  %17 = icmp eq i32 %16, 0
  br i1 %17, label %18, label %19

18:                                               ; preds = %13, %3
  store i32 0, ptr %4, align 4
  store i32 1, ptr %10, align 4
  br label %57

19:                                               ; preds = %13
  %20 = load ptr, ptr %6, align 8, !tbaa !31
  %21 = getelementptr inbounds nuw %struct.match_list, ptr %20, i32 0, i32 0
  %22 = load ptr, ptr %21, align 8, !tbaa !33
  store ptr %22, ptr %8, align 8, !tbaa !46
  br label %23

23:                                               ; preds = %52, %19
  %24 = load ptr, ptr %8, align 8, !tbaa !46
  %25 = icmp ne ptr %24, null
  br i1 %25, label %26, label %56

26:                                               ; preds = %23
  %27 = load ptr, ptr %5, align 8, !tbaa !4
  %28 = getelementptr inbounds nuw %struct.archive_match, ptr %27, i32 0, i32 0
  %29 = load ptr, ptr %8, align 8, !tbaa !46
  %30 = getelementptr inbounds nuw %struct.match, ptr %29, i32 0, i32 2
  %31 = call i32 @archive_mstring_get_mbs(ptr noundef %28, ptr noundef %30, ptr noundef %9)
  %32 = icmp slt i32 %31, 0
  br i1 %32, label %33, label %40

33:                                               ; preds = %26
  %34 = call ptr @__errno_location() #12
  %35 = load i32, ptr %34, align 4, !tbaa !43
  %36 = icmp eq i32 %35, 12
  br i1 %36, label %37, label %40

37:                                               ; preds = %33
  %38 = load ptr, ptr %5, align 8, !tbaa !4
  %39 = call i32 @error_nomem(ptr noundef %38)
  store i32 %39, ptr %4, align 4
  store i32 1, ptr %10, align 4
  br label %57

40:                                               ; preds = %33, %26
  %41 = load ptr, ptr %9, align 8, !tbaa !94
  %42 = icmp ne ptr %41, null
  br i1 %42, label %43, label %51

43:                                               ; preds = %40
  %44 = load ptr, ptr %9, align 8, !tbaa !94
  %45 = load ptr, ptr %7, align 8, !tbaa !94
  %46 = call i32 @strcmp(ptr noundef %44, ptr noundef %45) #11
  %47 = icmp eq i32 %46, 0
  br i1 %47, label %48, label %51

48:                                               ; preds = %43
  %49 = load ptr, ptr %8, align 8, !tbaa !46
  %50 = getelementptr inbounds nuw %struct.match, ptr %49, i32 0, i32 1
  store i32 1, ptr %50, align 8, !tbaa !64
  store i32 1, ptr %4, align 4
  store i32 1, ptr %10, align 4
  br label %57

51:                                               ; preds = %43, %40
  br label %52

52:                                               ; preds = %51
  %53 = load ptr, ptr %8, align 8, !tbaa !46
  %54 = getelementptr inbounds nuw %struct.match, ptr %53, i32 0, i32 0
  %55 = load ptr, ptr %54, align 8, !tbaa !47
  store ptr %55, ptr %8, align 8, !tbaa !46
  br label %23, !llvm.loop !122

56:                                               ; preds = %23
  store i32 0, ptr %4, align 4
  store i32 1, ptr %10, align 4
  br label %57

57:                                               ; preds = %56, %48, %37, %18
  call void @llvm.lifetime.end.p0(i64 8, ptr %9) #9
  call void @llvm.lifetime.end.p0(i64 8, ptr %8) #9
  %58 = load i32, ptr %4, align 4
  ret i32 %58
}

; Function Attrs: nounwind uwtable
define internal i32 @match_owner_id(ptr noundef %0, i64 noundef %1) #0 {
  %3 = alloca i32, align 4
  %4 = alloca ptr, align 8
  %5 = alloca i64, align 8
  %6 = alloca i32, align 4
  %7 = alloca i32, align 4
  %8 = alloca i32, align 4
  %9 = alloca i32, align 4
  store ptr %0, ptr %4, align 8, !tbaa !112
  store i64 %1, ptr %5, align 8, !tbaa !71
  call void @llvm.lifetime.start.p0(i64 4, ptr %6) #9
  call void @llvm.lifetime.start.p0(i64 4, ptr %7) #9
  call void @llvm.lifetime.start.p0(i64 4, ptr %8) #9
  store i32 0, ptr %8, align 4, !tbaa !43
  %10 = load ptr, ptr %4, align 8, !tbaa !112
  %11 = getelementptr inbounds nuw %struct.id_array, ptr %10, i32 0, i32 1
  %12 = load i64, ptr %11, align 8, !tbaa !114
  %13 = trunc i64 %12 to i32
  store i32 %13, ptr %6, align 4, !tbaa !43
  br label %14

14:                                               ; preds = %48, %2
  %15 = load i32, ptr %8, align 4, !tbaa !43
  %16 = load i32, ptr %6, align 4, !tbaa !43
  %17 = icmp ult i32 %15, %16
  br i1 %17, label %18, label %49

18:                                               ; preds = %14
  %19 = load i32, ptr %8, align 4, !tbaa !43
  %20 = load i32, ptr %6, align 4, !tbaa !43
  %21 = add i32 %19, %20
  %22 = lshr i32 %21, 1
  store i32 %22, ptr %7, align 4, !tbaa !43
  %23 = load ptr, ptr %4, align 8, !tbaa !112
  %24 = getelementptr inbounds nuw %struct.id_array, ptr %23, i32 0, i32 2
  %25 = load ptr, ptr %24, align 8, !tbaa !116
  %26 = load i32, ptr %7, align 4, !tbaa !43
  %27 = zext i32 %26 to i64
  %28 = getelementptr inbounds nuw i64, ptr %25, i64 %27
  %29 = load i64, ptr %28, align 8, !tbaa !71
  %30 = load i64, ptr %5, align 8, !tbaa !71
  %31 = icmp eq i64 %29, %30
  br i1 %31, label %32, label %33

32:                                               ; preds = %18
  store i32 1, ptr %3, align 4
  store i32 1, ptr %9, align 4
  br label %50

33:                                               ; preds = %18
  %34 = load ptr, ptr %4, align 8, !tbaa !112
  %35 = getelementptr inbounds nuw %struct.id_array, ptr %34, i32 0, i32 2
  %36 = load ptr, ptr %35, align 8, !tbaa !116
  %37 = load i32, ptr %7, align 4, !tbaa !43
  %38 = zext i32 %37 to i64
  %39 = getelementptr inbounds nuw i64, ptr %36, i64 %38
  %40 = load i64, ptr %39, align 8, !tbaa !71
  %41 = load i64, ptr %5, align 8, !tbaa !71
  %42 = icmp slt i64 %40, %41
  br i1 %42, label %43, label %46

43:                                               ; preds = %33
  %44 = load i32, ptr %7, align 4, !tbaa !43
  %45 = add i32 %44, 1
  store i32 %45, ptr %8, align 4, !tbaa !43
  br label %48

46:                                               ; preds = %33
  %47 = load i32, ptr %7, align 4, !tbaa !43
  store i32 %47, ptr %6, align 4, !tbaa !43
  br label %48

48:                                               ; preds = %46, %43
  br label %14, !llvm.loop !121

49:                                               ; preds = %14
  store i32 0, ptr %3, align 4
  store i32 1, ptr %9, align 4
  br label %50

50:                                               ; preds = %49, %32
  call void @llvm.lifetime.end.p0(i64 4, ptr %8) #9
  call void @llvm.lifetime.end.p0(i64 4, ptr %7) #9
  call void @llvm.lifetime.end.p0(i64 4, ptr %6) #9
  %51 = load i32, ptr %3, align 4
  ret i32 %51
}

; Function Attrs: nounwind uwtable
define internal i32 @owner_excluded(ptr noundef %0, ptr noundef %1) #0 {
  %3 = alloca i32, align 4
  %4 = alloca ptr, align 8
  %5 = alloca ptr, align 8
  %6 = alloca i32, align 4
  %7 = alloca i32, align 4
  store ptr %0, ptr %4, align 8, !tbaa !4
  store ptr %1, ptr %5, align 8, !tbaa !59
  call void @llvm.lifetime.start.p0(i64 4, ptr %6) #9
  %8 = load ptr, ptr %4, align 8, !tbaa !4
  %9 = getelementptr inbounds nuw %struct.archive_match, ptr %8, i32 0, i32 20
  %10 = getelementptr inbounds nuw %struct.id_array, ptr %9, i32 0, i32 1
  %11 = load i64, ptr %10, align 8, !tbaa !90
  %12 = icmp ne i64 %11, 0
  br i1 %12, label %13, label %22

13:                                               ; preds = %2
  %14 = load ptr, ptr %4, align 8, !tbaa !4
  %15 = getelementptr inbounds nuw %struct.archive_match, ptr %14, i32 0, i32 20
  %16 = load ptr, ptr %5, align 8, !tbaa !59
  %17 = call i64 @archive_entry_uid(ptr noundef %16)
  %18 = call i32 @match_owner_id(ptr noundef %15, i64 noundef %17)
  %19 = icmp ne i32 %18, 0
  br i1 %19, label %21, label %20

20:                                               ; preds = %13
  store i32 1, ptr %3, align 4
  store i32 1, ptr %7, align 4
  br label %84

21:                                               ; preds = %13
  br label %22

22:                                               ; preds = %21, %2
  %23 = load ptr, ptr %4, align 8, !tbaa !4
  %24 = getelementptr inbounds nuw %struct.archive_match, ptr %23, i32 0, i32 21
  %25 = getelementptr inbounds nuw %struct.id_array, ptr %24, i32 0, i32 1
  %26 = load i64, ptr %25, align 8, !tbaa !91
  %27 = icmp ne i64 %26, 0
  br i1 %27, label %28, label %37

28:                                               ; preds = %22
  %29 = load ptr, ptr %4, align 8, !tbaa !4
  %30 = getelementptr inbounds nuw %struct.archive_match, ptr %29, i32 0, i32 21
  %31 = load ptr, ptr %5, align 8, !tbaa !59
  %32 = call i64 @archive_entry_gid(ptr noundef %31)
  %33 = call i32 @match_owner_id(ptr noundef %30, i64 noundef %32)
  %34 = icmp ne i32 %33, 0
  br i1 %34, label %36, label %35

35:                                               ; preds = %28
  store i32 1, ptr %3, align 4
  store i32 1, ptr %7, align 4
  br label %84

36:                                               ; preds = %28
  br label %37

37:                                               ; preds = %36, %22
  %38 = load ptr, ptr %4, align 8, !tbaa !4
  %39 = getelementptr inbounds nuw %struct.archive_match, ptr %38, i32 0, i32 22
  %40 = getelementptr inbounds nuw %struct.match_list, ptr %39, i32 0, i32 2
  %41 = load i32, ptr %40, align 8, !tbaa !92
  %42 = icmp ne i32 %41, 0
  br i1 %42, label %43, label %60

43:                                               ; preds = %37
  %44 = load ptr, ptr %4, align 8, !tbaa !4
  %45 = load ptr, ptr %4, align 8, !tbaa !4
  %46 = getelementptr inbounds nuw %struct.archive_match, ptr %45, i32 0, i32 22
  %47 = load ptr, ptr %5, align 8, !tbaa !59
  %48 = call ptr @archive_entry_uname(ptr noundef %47)
  %49 = call i32 @match_owner_name_mbs(ptr noundef %44, ptr noundef %46, ptr noundef %48)
  store i32 %49, ptr %6, align 4, !tbaa !43
  %50 = load i32, ptr %6, align 4, !tbaa !43
  %51 = icmp ne i32 %50, 0
  br i1 %51, label %53, label %52

52:                                               ; preds = %43
  store i32 1, ptr %3, align 4
  store i32 1, ptr %7, align 4
  br label %84

53:                                               ; preds = %43
  %54 = load i32, ptr %6, align 4, !tbaa !43
  %55 = icmp slt i32 %54, 0
  br i1 %55, label %56, label %58

56:                                               ; preds = %53
  %57 = load i32, ptr %6, align 4, !tbaa !43
  store i32 %57, ptr %3, align 4
  store i32 1, ptr %7, align 4
  br label %84

58:                                               ; preds = %53
  br label %59

59:                                               ; preds = %58
  br label %60

60:                                               ; preds = %59, %37
  %61 = load ptr, ptr %4, align 8, !tbaa !4
  %62 = getelementptr inbounds nuw %struct.archive_match, ptr %61, i32 0, i32 23
  %63 = getelementptr inbounds nuw %struct.match_list, ptr %62, i32 0, i32 2
  %64 = load i32, ptr %63, align 8, !tbaa !93
  %65 = icmp ne i32 %64, 0
  br i1 %65, label %66, label %83

66:                                               ; preds = %60
  %67 = load ptr, ptr %4, align 8, !tbaa !4
  %68 = load ptr, ptr %4, align 8, !tbaa !4
  %69 = getelementptr inbounds nuw %struct.archive_match, ptr %68, i32 0, i32 23
  %70 = load ptr, ptr %5, align 8, !tbaa !59
  %71 = call ptr @archive_entry_gname(ptr noundef %70)
  %72 = call i32 @match_owner_name_mbs(ptr noundef %67, ptr noundef %69, ptr noundef %71)
  store i32 %72, ptr %6, align 4, !tbaa !43
  %73 = load i32, ptr %6, align 4, !tbaa !43
  %74 = icmp ne i32 %73, 0
  br i1 %74, label %76, label %75

75:                                               ; preds = %66
  store i32 1, ptr %3, align 4
  store i32 1, ptr %7, align 4
  br label %84

76:                                               ; preds = %66
  %77 = load i32, ptr %6, align 4, !tbaa !43
  %78 = icmp slt i32 %77, 0
  br i1 %78, label %79, label %81

79:                                               ; preds = %76
  %80 = load i32, ptr %6, align 4, !tbaa !43
  store i32 %80, ptr %3, align 4
  store i32 1, ptr %7, align 4
  br label %84

81:                                               ; preds = %76
  br label %82

82:                                               ; preds = %81
  br label %83

83:                                               ; preds = %82, %60
  store i32 0, ptr %3, align 4
  store i32 1, ptr %7, align 4
  br label %84

84:                                               ; preds = %83, %79, %75, %56, %52, %35, %20
  call void @llvm.lifetime.end.p0(i64 4, ptr %6) #9
  %85 = load i32, ptr %3, align 4
  ret i32 %85
}