; Function Attrs: nounwind uwtable
define internal fastcc range(i32 -30, 2) i32 @owner_excluded(ptr noundef %0, ptr noundef nonnull %1) unnamed_addr #0 {
  %3 = alloca ptr, align 8
  %4 = alloca ptr, align 8
  %5 = getelementptr inbounds nuw i8, ptr %0, i64 384
  %6 = load i64, ptr %5, align 8, !tbaa !77
  %.not = icmp eq i64 %6, 0
  br i1 %.not, label %match_owner_id.exit, label %7

7:                                                ; preds = %2
  %8 = tail call i64 @archive_entry_uid(ptr noundef nonnull %1) #14
  %9 = load i64, ptr %5, align 8, !tbaa !78
  %10 = trunc i64 %9 to i32
  %.not.i = icmp eq i32 %10, 0
  br i1 %.not.i, label %match_owner_id.exit.thread, label %.lr.ph.i

.lr.ph.i:                                         ; preds = %7
  %11 = getelementptr inbounds nuw i8, ptr %0, i64 392
  %12 = load ptr, ptr %11, align 8, !tbaa !79
  br label %13

13:                                               ; preds = %20, %.lr.ph.i
  %.019.i = phi i32 [ 0, %.lr.ph.i ], [ %.1.i, %20 ]
  %.01418.i = phi i32 [ %10, %.lr.ph.i ], [ %.115.i, %20 ]
  %14 = add i32 %.01418.i, %.019.i
  %15 = lshr i32 %14, 1
  %16 = zext nneg i32 %15 to i64
  %17 = getelementptr inbounds nuw i64, ptr %12, i64 %16
  %18 = load i64, ptr %17, align 8, !tbaa !80
  %19 = icmp eq i64 %18, %8
  br i1 %19, label %match_owner_id.exit, label %20

20:                                               ; preds = %13
  %21 = icmp slt i64 %18, %8
  %22 = add nuw i32 %15, 1
  %.115.i = select i1 %21, i32 %.01418.i, i32 %15
  %.1.i = select i1 %21, i32 %22, i32 %.019.i
  %23 = icmp ult i32 %.1.i, %.115.i
  br i1 %23, label %13, label %match_owner_id.exit.thread, !llvm.loop !81

match_owner_id.exit:                              ; preds = %13, %2
  %24 = getelementptr inbounds nuw i8, ptr %0, i64 408
  %25 = load i64, ptr %24, align 8, !tbaa !82
  %.not23 = icmp eq i64 %25, 0
  br i1 %.not23, label %match_owner_id.exit36, label %26

26:                                               ; preds = %match_owner_id.exit
  %27 = tail call i64 @archive_entry_gid(ptr noundef nonnull %1) #14
  %28 = load i64, ptr %24, align 8, !tbaa !78
  %29 = trunc i64 %28 to i32
  %.not.i29 = icmp eq i32 %29, 0
  br i1 %.not.i29, label %match_owner_id.exit.thread, label %.lr.ph.i30

.lr.ph.i30:                                       ; preds = %26
  %30 = getelementptr inbounds nuw i8, ptr %0, i64 416
  %31 = load ptr, ptr %30, align 8, !tbaa !79
  br label %32

32:                                               ; preds = %39, %.lr.ph.i30
  %.019.i31 = phi i32 [ 0, %.lr.ph.i30 ], [ %.1.i34, %39 ]
  %.01418.i32 = phi i32 [ %29, %.lr.ph.i30 ], [ %.115.i33, %39 ]
  %33 = add i32 %.01418.i32, %.019.i31
  %34 = lshr i32 %33, 1
  %35 = zext nneg i32 %34 to i64
  %36 = getelementptr inbounds nuw i64, ptr %31, i64 %35
  %37 = load i64, ptr %36, align 8, !tbaa !80
  %38 = icmp eq i64 %37, %27
  br i1 %38, label %match_owner_id.exit36, label %39

39:                                               ; preds = %32
  %40 = icmp slt i64 %37, %27
  %41 = add nuw i32 %34, 1
  %.115.i33 = select i1 %40, i32 %.01418.i32, i32 %34
  %.1.i34 = select i1 %40, i32 %41, i32 %.019.i31
  %42 = icmp ult i32 %.1.i34, %.115.i33
  br i1 %42, label %32, label %match_owner_id.exit.thread, !llvm.loop !81

match_owner_id.exit36:                            ; preds = %32, %match_owner_id.exit
  %43 = getelementptr inbounds nuw i8, ptr %0, i64 440
  %44 = load i32, ptr %43, align 8, !tbaa !83
  %.not25 = icmp eq i32 %44, 0
  br i1 %.not25, label %68, label %45

45:                                               ; preds = %match_owner_id.exit36
  %46 = getelementptr inbounds nuw i8, ptr %0, i64 424
  %47 = tail call ptr @archive_entry_uname(ptr noundef nonnull %1) #14
  call void @llvm.lifetime.start.p0(i64 8, ptr nonnull %4) #14
  %48 = icmp eq ptr %47, null
  br i1 %48, label %match_owner_name_mbs.exit.thread, label %49

49:                                               ; preds = %45
  %50 = load i8, ptr %47, align 1, !tbaa !84
  %51 = icmp eq i8 %50, 0
  br i1 %51, label %match_owner_name_mbs.exit.thread, label %.preheader.i

.preheader.i:                                     ; preds = %49
  %.016.i = load ptr, ptr %46, align 8, !tbaa !49
  %.not17.i = icmp eq ptr %.016.i, null
  br i1 %.not17.i, label %match_owner_name_mbs.exit.thread, label %.lr.ph.i37

.lr.ph.i37:                                       ; preds = %.preheader.i, %65
  %.018.i = phi ptr [ %.0.i, %65 ], [ %.016.i, %.preheader.i ]
  %52 = getelementptr inbounds nuw i8, ptr %.018.i, i64 16
  %53 = call i32 @archive_mstring_get_mbs(ptr noundef %0, ptr noundef nonnull %52, ptr noundef nonnull %4) #14
  %54 = icmp slt i32 %53, 0
  br i1 %54, label %55, label %60

55:                                               ; preds = %.lr.ph.i37
  %56 = tail call ptr @__errno_location() #15
  %57 = load i32, ptr %56, align 4, !tbaa !51
  %58 = icmp eq i32 %57, 12
  br i1 %58, label %.thread, label %60

.thread:                                          ; preds = %55
  call void (ptr, i32, ptr, ...) @archive_set_error(ptr noundef %0, i32 noundef 12, ptr noundef nonnull @.str.32) #14
  %59 = getelementptr inbounds nuw i8, ptr %0, i64 4
  store i32 32768, ptr %59, align 4, !tbaa !27
  call void @llvm.lifetime.end.p0(i64 8, ptr nonnull %4) #14
  br label %match_owner_id.exit.thread

60:                                               ; preds = %55, %.lr.ph.i37
  %61 = load ptr, ptr %4, align 8, !tbaa !52
  %.not13.i = icmp eq ptr %61, null
  br i1 %.not13.i, label %65, label %62

62:                                               ; preds = %60
  %63 = call i32 @strcmp(ptr noundef nonnull dereferenceable(1) %61, ptr noundef nonnull readonly dereferenceable(1) %47) #16
  %64 = icmp eq i32 %63, 0
  br i1 %64, label %66, label %65

65:                                               ; preds = %62, %60
  %.0.i = load ptr, ptr %.018.i, align 8, !tbaa !49
  %.not.i38 = icmp eq ptr %.0.i, null
  br i1 %.not.i38, label %match_owner_name_mbs.exit.thread, label %.lr.ph.i37, !llvm.loop !85

match_owner_name_mbs.exit.thread:                 ; preds = %65, %49, %45, %.preheader.i
  call void @llvm.lifetime.end.p0(i64 8, ptr nonnull %4) #14
  br label %match_owner_id.exit.thread

66:                                               ; preds = %62
  %67 = getelementptr inbounds nuw i8, ptr %.018.i, i64 8
  store i32 1, ptr %67, align 8, !tbaa !50
  call void @llvm.lifetime.end.p0(i64 8, ptr nonnull %4) #14
  br label %68

68:                                               ; preds = %66, %match_owner_id.exit36
  %69 = getelementptr inbounds nuw i8, ptr %0, i64 480
  %70 = load i32, ptr %69, align 8, !tbaa !86
  %.not27 = icmp eq i32 %70, 0
  br i1 %.not27, label %match_owner_id.exit.thread, label %71

71:                                               ; preds = %68
  %72 = getelementptr inbounds nuw i8, ptr %0, i64 464
  %73 = call ptr @archive_entry_gname(ptr noundef nonnull %1) #14
  call void @llvm.lifetime.start.p0(i64 8, ptr nonnull %3) #14
  %74 = icmp eq ptr %73, null
  br i1 %74, label %match_owner_name_mbs.exit48.thread, label %75

75:                                               ; preds = %71
  %76 = load i8, ptr %73, align 1, !tbaa !84
  %77 = icmp eq i8 %76, 0
  br i1 %77, label %match_owner_name_mbs.exit48.thread, label %.preheader.i39

.preheader.i39:                                   ; preds = %75
  %.016.i40 = load ptr, ptr %72, align 8, !tbaa !49
  %.not17.i41 = icmp eq ptr %.016.i40, null
  br i1 %.not17.i41, label %match_owner_name_mbs.exit48.thread, label %.lr.ph.i42

.lr.ph.i42:                                       ; preds = %.preheader.i39, %91
  %.018.i43 = phi ptr [ %.0.i45, %91 ], [ %.016.i40, %.preheader.i39 ]
  %78 = getelementptr inbounds nuw i8, ptr %.018.i43, i64 16
  %79 = call i32 @archive_mstring_get_mbs(ptr noundef %0, ptr noundef nonnull %78, ptr noundef nonnull %3) #14
  %80 = icmp slt i32 %79, 0
  br i1 %80, label %81, label %86

81:                                               ; preds = %.lr.ph.i42
  %82 = tail call ptr @__errno_location() #15
  %83 = load i32, ptr %82, align 4, !tbaa !51
  %84 = icmp eq i32 %83, 12
  br i1 %84, label %.thread58, label %86

.thread58:                                        ; preds = %81
  call void (ptr, i32, ptr, ...) @archive_set_error(ptr noundef %0, i32 noundef 12, ptr noundef nonnull @.str.32) #14
  %85 = getelementptr inbounds nuw i8, ptr %0, i64 4
  store i32 32768, ptr %85, align 4, !tbaa !27
  call void @llvm.lifetime.end.p0(i64 8, ptr nonnull %3) #14
  br label %match_owner_id.exit.thread

86:                                               ; preds = %81, %.lr.ph.i42
  %87 = load ptr, ptr %3, align 8, !tbaa !52
  %.not13.i44 = icmp eq ptr %87, null
  br i1 %.not13.i44, label %91, label %88

88:                                               ; preds = %86
  %89 = call i32 @strcmp(ptr noundef nonnull dereferenceable(1) %87, ptr noundef nonnull readonly dereferenceable(1) %73) #16
  %90 = icmp eq i32 %89, 0
  br i1 %90, label %92, label %91

91:                                               ; preds = %88, %86
  %.0.i45 = load ptr, ptr %.018.i43, align 8, !tbaa !49
  %.not.i46 = icmp eq ptr %.0.i45, null
  br i1 %.not.i46, label %match_owner_name_mbs.exit48.thread, label %.lr.ph.i42, !llvm.loop !85

match_owner_name_mbs.exit48.thread:               ; preds = %91, %75, %71, %.preheader.i39
  call void @llvm.lifetime.end.p0(i64 8, ptr nonnull %3) #14
  br label %match_owner_id.exit.thread

92:                                               ; preds = %88
  %93 = getelementptr inbounds nuw i8, ptr %.018.i43, i64 8
  store i32 1, ptr %93, align 8, !tbaa !50
  call void @llvm.lifetime.end.p0(i64 8, ptr nonnull %3) #14
  br label %match_owner_id.exit.thread

match_owner_id.exit.thread:                       ; preds = %20, %39, %26, %7, %68, %92, %.thread58, %match_owner_name_mbs.exit48.thread, %.thread, %match_owner_name_mbs.exit.thread
  %.0 = phi i32 [ 1, %match_owner_name_mbs.exit.thread ], [ -30, %.thread ], [ 1, %match_owner_name_mbs.exit48.thread ], [ -30, %.thread58 ], [ 0, %92 ], [ 0, %68 ], [ 1, %7 ], [ 1, %26 ], [ 1, %39 ], [ 1, %20 ]
  ret i32 %.0
}